(dp0
(I0
I1
I1
tp1
(dp2
(I0
I1
I1
tp3
F0.0
s(I0
I1
I2
tp4
F0.0
s(I1
I0
I1
tp5
F0.0
s(I0
I2
I1
tp6
F0.0
s(I2
I2
I0
tp7
F0.0
s(I0
I2
I0
tp8
F0.0
s(I0
I2
I2
tp9
F0.0
s(I1
I0
I0
tp10
F0.0
s(I2
I0
I1
tp11
F0.0
s(I1
I2
I0
tp12
F0.0
s(I2
I0
I0
tp13
F0.0
s(I1
I2
I1
tp14
F0.0
s(I0
I0
I2
tp15
F0.0
s(I2
I2
I2
tp16
F0.0
s(I1
I2
I2
tp17
F0.0
s(I2
I0
I2
tp18
F0.0
s(I0
I0
I1
tp19
F0.01
s(I0
I0
I0
tp20
F0.01
s(I2
I1
I2
tp21
F0.0
s(I1
I1
I1
tp22
F0.01
s(I0
I1
I0
tp23
F0.059999999999999998
s(I1
I1
I0
tp24
F0.01
s(I2
I1
I0
tp25
F0.0
s(I2
I2
I1
tp26
F0.0
s(I2
I1
I1
tp27
F0.0
s(I1
I1
I2
tp28
F0.0
s(I1
I0
I2
tp29
F0.0
ss(I0
I1
I2
tp30
(dp31
(I0
I1
I1
tp32
F0.080000000000000002
s(I0
I1
I2
tp33
F0.0
s(I1
I0
I1
tp34
F0.0
s(I0
I2
I1
tp35
F0.01
s(I2
I2
I0
tp36
F0.0
s(I0
I2
I0
tp37
F0.0
s(I0
I2
I2
tp38
F0.0
s(I1
I0
I0
tp39
F0.0
s(I2
I0
I1
tp40
F0.0
s(I1
I2
I0
tp41
F0.0
s(I2
I0
I0
tp42
F0.0
s(I1
I2
I1
tp43
F0.0
s(I0
I0
I2
tp44
F0.0
s(I2
I2
I2
tp45
F0.0
s(I1
I2
I2
tp46
F0.0
s(I2
I0
I2
tp47
F0.0
s(I0
I0
I1
tp48
F0.01
s(I0
I0
I0
tp49
F0.0
s(I2
I1
I2
tp50
F0.0
s(I1
I1
I1
tp51
F0.0
s(I0
I1
I0
tp52
F0.01
s(I1
I1
I0
tp53
F0.0
s(I2
I1
I0
tp54
F0.0
s(I2
I2
I1
tp55
F0.0
s(I2
I1
I1
tp56
F0.0
s(I1
I1
I2
tp57
F0.0
s(I1
I0
I2
tp58
F0.0
ss(I1
I0
I1
tp59
(dp60
(I0
I1
I1
tp61
F0.0
s(I0
I1
I2
tp62
F0.0
s(I1
I0
I1
tp63
F0.0
s(I0
I2
I1
tp64
F0.0
s(I2
I2
I0
tp65
F0.0
s(I0
I2
I0
tp66
F0.0
s(I0
I2
I2
tp67
F0.0
s(I1
I0
I0
tp68
F0.0
s(I2
I0
I1
tp69
F0.0
s(I1
I2
I0
tp70
F0.0
s(I2
I0
I0
tp71
F0.0
s(I1
I2
I1
tp72
F0.0
s(I0
I0
I2
tp73
F0.0
s(I2
I2
I2
tp74
F0.0
s(I1
I2
I2
tp75
F0.0
s(I2
I0
I2
tp76
F0.0
s(I0
I0
I1
tp77
F0.0
s(I0
I0
I0
tp78
F0.0
s(I2
I1
I2
tp79
F0.0
s(I1
I1
I1
tp80
F0.0
s(I0
I1
I0
tp81
F0.0
s(I1
I1
I0
tp82
F0.0
s(I2
I1
I0
tp83
F0.0
s(I2
I2
I1
tp84
F0.0
s(I2
I1
I1
tp85
F0.0
s(I1
I1
I2
tp86
F0.0
s(I1
I0
I2
tp87
F0.0
ss(I0
I2
I1
tp88
(dp89
(I0
I1
I1
tp90
F0.0
s(I0
I1
I2
tp91
F0.0
s(I1
I0
I1
tp92
F0.0
s(I0
I2
I1
tp93
F0.0
s(I2
I2
I0
tp94
F0.0
s(I0
I2
I0
tp95
F0.0
s(I0
I2
I2
tp96
F0.0
s(I1
I0
I0
tp97
F0.0
s(I2
I0
I1
tp98
F0.0
s(I1
I2
I0
tp99
F0.0
s(I2
I0
I0
tp100
F0.0
s(I1
I2
I1
tp101
F0.0
s(I0
I0
I2
tp102
F0.0
s(I2
I2
I2
tp103
F0.0
s(I1
I2
I2
tp104
F0.0
s(I2
I0
I2
tp105
F0.0
s(I0
I0
I1
tp106
F0.0
s(I0
I0
I0
tp107
F0.0
s(I2
I1
I2
tp108
F0.0
s(I1
I1
I1
tp109
F0.0
s(I0
I1
I0
tp110
F0.01
s(I1
I1
I0
tp111
F0.0
s(I2
I1
I0
tp112
F0.0
s(I2
I2
I1
tp113
F0.0
s(I2
I1
I1
tp114
F0.0
s(I1
I1
I2
tp115
F0.0
s(I1
I0
I2
tp116
F0.0
ss(I2
I2
I0
tp117
(dp118
(I0
I1
I1
tp119
F0.0
s(I0
I1
I2
tp120
F0.0
s(I1
I0
I1
tp121
F0.0
s(I0
I2
I1
tp122
F0.0
s(I2
I2
I0
tp123
F0.0
s(I0
I2
I0
tp124
F0.0
s(I0
I2
I2
tp125
F0.0
s(I1
I0
I0
tp126
F0.0
s(I2
I0
I1
tp127
F0.0
s(I1
I2
I0
tp128
F0.0
s(I2
I0
I0
tp129
F0.0
s(I1
I2
I1
tp130
F0.0
s(I0
I0
I2
tp131
F0.0
s(I2
I2
I2
tp132
F0.01
s(I1
I2
I2
tp133
F0.0
s(I2
I0
I2
tp134
F0.0
s(I0
I0
I1
tp135
F0.0
s(I0
I0
I0
tp136
F0.0
s(I2
I1
I2
tp137
F0.0
s(I1
I1
I1
tp138
F0.0
s(I0
I1
I0
tp139
F0.0
s(I1
I1
I0
tp140
F0.0
s(I2
I1
I0
tp141
F0.0
s(I2
I2
I1
tp142
F0.029999999999999999
s(I2
I1
I1
tp143
F0.0
s(I1
I1
I2
tp144
F0.0
s(I1
I0
I2
tp145
F0.0
ss(I0
I2
I0
tp146
(dp147
(I0
I1
I1
tp148
F0.0
s(I0
I1
I2
tp149
F0.0
s(I1
I0
I1
tp150
F0.0
s(I0
I2
I1
tp151
F0.0
s(I2
I2
I0
tp152
F0.0
s(I0
I2
I0
tp153
F0.0
s(I0
I2
I2
tp154
F0.0
s(I1
I0
I0
tp155
F0.0
s(I2
I0
I1
tp156
F0.0
s(I1
I2
I0
tp157
F0.0
s(I2
I0
I0
tp158
F0.0
s(I1
I2
I1
tp159
F0.0
s(I0
I0
I2
tp160
F0.0
s(I2
I2
I2
tp161
F0.0
s(I1
I2
I2
tp162
F0.0
s(I2
I0
I2
tp163
F0.0
s(I0
I0
I1
tp164
F0.0
s(I0
I0
I0
tp165
F0.0
s(I2
I1
I2
tp166
F0.0
s(I1
I1
I1
tp167
F0.0
s(I0
I1
I0
tp168
F0.0
s(I1
I1
I0
tp169
F0.0
s(I2
I1
I0
tp170
F0.0
s(I2
I2
I1
tp171
F0.0
s(I2
I1
I1
tp172
F0.0
s(I1
I1
I2
tp173
F0.0
s(I1
I0
I2
tp174
F0.0
ss(I0
I2
I2
tp175
(dp176
(I0
I1
I1
tp177
F0.0
s(I0
I1
I2
tp178
F0.0
s(I1
I0
I1
tp179
F0.0
s(I0
I2
I1
tp180
F0.0
s(I2
I2
I0
tp181
F0.0
s(I0
I2
I0
tp182
F0.0
s(I0
I2
I2
tp183
F0.0
s(I1
I0
I0
tp184
F0.0
s(I2
I0
I1
tp185
F0.0
s(I1
I2
I0
tp186
F0.0
s(I2
I0
I0
tp187
F0.0
s(I1
I2
I1
tp188
F0.0
s(I0
I0
I2
tp189
F0.0
s(I2
I2
I2
tp190
F0.0
s(I1
I2
I2
tp191
F0.0
s(I2
I0
I2
tp192
F0.0
s(I0
I0
I1
tp193
F0.0
s(I0
I0
I0
tp194
F0.0
s(I2
I1
I2
tp195
F0.0
s(I1
I1
I1
tp196
F0.0
s(I0
I1
I0
tp197
F0.0
s(I1
I1
I0
tp198
F0.0
s(I2
I1
I0
tp199
F0.0
s(I2
I2
I1
tp200
F0.0
s(I2
I1
I1
tp201
F0.0
s(I1
I1
I2
tp202
F0.0
s(I1
I0
I2
tp203
F0.0
ss(I1
I0
I0
tp204
(dp205
(I0
I1
I1
tp206
F0.0
s(I0
I1
I2
tp207
F0.0
s(I1
I0
I1
tp208
F0.0
s(I0
I2
I1
tp209
F0.0
s(I2
I2
I0
tp210
F0.0
s(I0
I2
I0
tp211
F0.0
s(I0
I2
I2
tp212
F0.0
s(I1
I0
I0
tp213
F0.0
s(I2
I0
I1
tp214
F0.0
s(I1
I2
I0
tp215
F0.0
s(I2
I0
I0
tp216
F0.0
s(I1
I2
I1
tp217
F0.0
s(I0
I0
I2
tp218
F0.0
s(I2
I2
I2
tp219
F0.0
s(I1
I2
I2
tp220
F0.0
s(I2
I0
I2
tp221
F0.0
s(I0
I0
I1
tp222
F0.0
s(I0
I0
I0
tp223
F0.0
s(I2
I1
I2
tp224
F0.0
s(I1
I1
I1
tp225
F0.01
s(I0
I1
I0
tp226
F0.0
s(I1
I1
I0
tp227
F0.0
s(I2
I1
I0
tp228
F0.0
s(I2
I2
I1
tp229
F0.0
s(I2
I1
I1
tp230
F0.0
s(I1
I1
I2
tp231
F0.0
s(I1
I0
I2
tp232
F0.0
ss(I2
I0
I1
tp233
(dp234
(I0
I1
I1
tp235
F0.0
s(I0
I1
I2
tp236
F0.0
s(I1
I0
I1
tp237
F0.0
s(I0
I2
I1
tp238
F0.0
s(I2
I2
I0
tp239
F0.0
s(I0
I2
I0
tp240
F0.0
s(I0
I2
I2
tp241
F0.0
s(I1
I0
I0
tp242
F0.0
s(I2
I0
I1
tp243
F0.0
s(I1
I2
I0
tp244
F0.0
s(I2
I0
I0
tp245
F0.0
s(I1
I2
I1
tp246
F0.0
s(I0
I0
I2
tp247
F0.0
s(I2
I2
I2
tp248
F0.0
s(I1
I2
I2
tp249
F0.0
s(I2
I0
I2
tp250
F0.0
s(I0
I0
I1
tp251
F0.0
s(I0
I0
I0
tp252
F0.0
s(I2
I1
I2
tp253
F0.0
s(I1
I1
I1
tp254
F0.0
s(I0
I1
I0
tp255
F0.0
s(I1
I1
I0
tp256
F0.0
s(I2
I1
I0
tp257
F0.0
s(I2
I2
I1
tp258
F0.0
s(I2
I1
I1
tp259
F0.0
s(I1
I1
I2
tp260
F0.0
s(I1
I0
I2
tp261
F0.0
ss(I1
I2
I0
tp262
(dp263
(I0
I1
I1
tp264
F0.0
s(I0
I1
I2
tp265
F0.0
s(I1
I0
I1
tp266
F0.0
s(I0
I2
I1
tp267
F0.0
s(I2
I2
I0
tp268
F0.0
s(I0
I2
I0
tp269
F0.0
s(I0
I2
I2
tp270
F0.0
s(I1
I0
I0
tp271
F0.0
s(I2
I0
I1
tp272
F0.0
s(I1
I2
I0
tp273
F0.0
s(I2
I0
I0
tp274
F0.0
s(I1
I2
I1
tp275
F0.0
s(I0
I0
I2
tp276
F0.0
s(I2
I2
I2
tp277
F0.0
s(I1
I2
I2
tp278
F0.0
s(I2
I0
I2
tp279
F0.0
s(I0
I0
I1
tp280
F0.0
s(I0
I0
I0
tp281
F0.0
s(I2
I1
I2
tp282
F0.0
s(I1
I1
I1
tp283
F0.0
s(I0
I1
I0
tp284
F0.0
s(I1
I1
I0
tp285
F0.0
s(I2
I1
I0
tp286
F0.0
s(I2
I2
I1
tp287
F0.0
s(I2
I1
I1
tp288
F0.0
s(I1
I1
I2
tp289
F0.0
s(I1
I0
I2
tp290
F0.0
ss(I2
I0
I0
tp291
(dp292
(I0
I1
I1
tp293
F0.0
s(I0
I1
I2
tp294
F0.0
s(I1
I0
I1
tp295
F0.0
s(I0
I2
I1
tp296
F0.0
s(I2
I2
I0
tp297
F0.0
s(I0
I2
I0
tp298
F0.0
s(I0
I2
I2
tp299
F0.0
s(I1
I0
I0
tp300
F0.0
s(I2
I0
I1
tp301
F0.0
s(I1
I2
I0
tp302
F0.0
s(I2
I0
I0
tp303
F0.0
s(I1
I2
I1
tp304
F0.0
s(I0
I0
I2
tp305
F0.0
s(I2
I2
I2
tp306
F0.0
s(I1
I2
I2
tp307
F0.0
s(I2
I0
I2
tp308
F0.0
s(I0
I0
I1
tp309
F0.0
s(I0
I0
I0
tp310
F0.0
s(I2
I1
I2
tp311
F0.0
s(I1
I1
I1
tp312
F0.0
s(I0
I1
I0
tp313
F0.0
s(I1
I1
I0
tp314
F0.0
s(I2
I1
I0
tp315
F0.0
s(I2
I2
I1
tp316
F0.0
s(I2
I1
I1
tp317
F0.01
s(I1
I1
I2
tp318
F0.0
s(I1
I0
I2
tp319
F0.0
ss(I1
I2
I1
tp320
(dp321
(I0
I1
I1
tp322
F0.0
s(I0
I1
I2
tp323
F0.0
s(I1
I0
I1
tp324
F0.0
s(I0
I2
I1
tp325
F0.0
s(I2
I2
I0
tp326
F0.01
s(I0
I2
I0
tp327
F0.0
s(I0
I2
I2
tp328
F0.0
s(I1
I0
I0
tp329
F0.0
s(I2
I0
I1
tp330
F0.0
s(I1
I2
I0
tp331
F0.0
s(I2
I0
I0
tp332
F0.0
s(I1
I2
I1
tp333
F0.0
s(I0
I0
I2
tp334
F0.0
s(I2
I2
I2
tp335
F0.0
s(I1
I2
I2
tp336
F0.0
s(I2
I0
I2
tp337
F0.0
s(I0
I0
I1
tp338
F0.0
s(I0
I0
I0
tp339
F0.0
s(I2
I1
I2
tp340
F0.0
s(I1
I1
I1
tp341
F0.0
s(I0
I1
I0
tp342
F0.0
s(I1
I1
I0
tp343
F0.0
s(I2
I1
I0
tp344
F0.01
s(I2
I2
I1
tp345
F0.0
s(I2
I1
I1
tp346
F0.0
s(I1
I1
I2
tp347
F0.0
s(I1
I0
I2
tp348
F0.0
ss(I0
I0
I2
tp349
(dp350
(I0
I1
I1
tp351
F0.0
s(I0
I1
I2
tp352
F0.0
s(I1
I0
I1
tp353
F0.0
s(I0
I2
I1
tp354
F0.0
s(I2
I2
I0
tp355
F0.0
s(I0
I2
I0
tp356
F0.0
s(I0
I2
I2
tp357
F0.0
s(I1
I0
I0
tp358
F0.0
s(I2
I0
I1
tp359
F0.0
s(I1
I2
I0
tp360
F0.0
s(I2
I0
I0
tp361
F0.0
s(I1
I2
I1
tp362
F0.0
s(I0
I0
I2
tp363
F0.0
s(I2
I2
I2
tp364
F0.0
s(I1
I2
I2
tp365
F0.0
s(I2
I0
I2
tp366
F0.0
s(I0
I0
I1
tp367
F0.0
s(I0
I0
I0
tp368
F0.0
s(I2
I1
I2
tp369
F0.0
s(I1
I1
I1
tp370
F0.0
s(I0
I1
I0
tp371
F0.0
s(I1
I1
I0
tp372
F0.0
s(I2
I1
I0
tp373
F0.0
s(I2
I2
I1
tp374
F0.0
s(I2
I1
I1
tp375
F0.0
s(I1
I1
I2
tp376
F0.0
s(I1
I0
I2
tp377
F0.0
ss(I2
I2
I2
tp378
(dp379
(I0
I1
I1
tp380
F0.0
s(I0
I1
I2
tp381
F0.0
s(I1
I0
I1
tp382
F0.0
s(I0
I2
I1
tp383
F0.0
s(I2
I2
I0
tp384
F0.0
s(I0
I2
I0
tp385
F0.0
s(I0
I2
I2
tp386
F0.0
s(I1
I0
I0
tp387
F0.0
s(I2
I0
I1
tp388
F0.0
s(I1
I2
I0
tp389
F0.0
s(I2
I0
I0
tp390
F0.0
s(I1
I2
I1
tp391
F0.0
s(I0
I0
I2
tp392
F0.0
s(I2
I2
I2
tp393
F0.0
s(I1
I2
I2
tp394
F0.02
s(I2
I0
I2
tp395
F0.0
s(I0
I0
I1
tp396
F0.0
s(I0
I0
I0
tp397
F0.0
s(I2
I1
I2
tp398
F0.0
s(I1
I1
I1
tp399
F0.0
s(I0
I1
I0
tp400
F0.0
s(I1
I1
I0
tp401
F0.0
s(I2
I1
I0
tp402
F0.0
s(I2
I2
I1
tp403
F0.0
s(I2
I1
I1
tp404
F0.0
s(I1
I1
I2
tp405
F0.029999999999999999
s(I1
I0
I2
tp406
F0.0
ss(I1
I2
I2
tp407
(dp408
(I0
I1
I1
tp409
F0.0
s(I0
I1
I2
tp410
F0.050000000000000003
s(I1
I0
I1
tp411
F0.0
s(I0
I2
I1
tp412
F0.0
s(I2
I2
I0
tp413
F0.0
s(I0
I2
I0
tp414
F0.0
s(I0
I2
I2
tp415
F0.0
s(I1
I0
I0
tp416
F0.0
s(I2
I0
I1
tp417
F0.0
s(I1
I2
I0
tp418
F0.0
s(I2
I0
I0
tp419
F0.0
s(I1
I2
I1
tp420
F0.0
s(I0
I0
I2
tp421
F0.0
s(I2
I2
I2
tp422
F0.0
s(I1
I2
I2
tp423
F0.0
s(I2
I0
I2
tp424
F0.0
s(I0
I0
I1
tp425
F0.0
s(I0
I0
I0
tp426
F0.0
s(I2
I1
I2
tp427
F0.0
s(I1
I1
I1
tp428
F0.0
s(I0
I1
I0
tp429
F0.0
s(I1
I1
I0
tp430
F0.0
s(I2
I1
I0
tp431
F0.0
s(I2
I2
I1
tp432
F0.0
s(I2
I1
I1
tp433
F0.0
s(I1
I1
I2
tp434
F0.01
s(I1
I0
I2
tp435
F0.0
ss(I2
I0
I2
tp436
(dp437
(I0
I1
I1
tp438
F0.0
s(I0
I1
I2
tp439
F0.0
s(I1
I0
I1
tp440
F0.0
s(I0
I2
I1
tp441
F0.0
s(I2
I2
I0
tp442
F0.0
s(I0
I2
I0
tp443
F0.0
s(I0
I2
I2
tp444
F0.0
s(I1
I0
I0
tp445
F0.0
s(I2
I0
I1
tp446
F0.0
s(I1
I2
I0
tp447
F0.0
s(I2
I0
I0
tp448
F0.0
s(I1
I2
I1
tp449
F0.0
s(I0
I0
I2
tp450
F0.0
s(I2
I2
I2
tp451
F0.0
s(I1
I2
I2
tp452
F0.0
s(I2
I0
I2
tp453
F0.0
s(I0
I0
I1
tp454
F0.0
s(I0
I0
I0
tp455
F0.0
s(I2
I1
I2
tp456
F0.0
s(I1
I1
I1
tp457
F0.0
s(I0
I1
I0
tp458
F0.0
s(I1
I1
I0
tp459
F0.0
s(I2
I1
I0
tp460
F0.0
s(I2
I2
I1
tp461
F0.0
s(I2
I1
I1
tp462
F0.0
s(I1
I1
I2
tp463
F0.01
s(I1
I0
I2
tp464
F0.0
ss(I0
I0
I1
tp465
(dp466
(I0
I1
I1
tp467
F0.0
s(I0
I1
I2
tp468
F0.0
s(I1
I0
I1
tp469
F0.0
s(I0
I2
I1
tp470
F0.0
s(I2
I2
I0
tp471
F0.0
s(I0
I2
I0
tp472
F0.0
s(I0
I2
I2
tp473
F0.0
s(I1
I0
I0
tp474
F0.0
s(I2
I0
I1
tp475
F0.0
s(I1
I2
I0
tp476
F0.0
s(I2
I0
I0
tp477
F0.0
s(I1
I2
I1
tp478
F0.0
s(I0
I0
I2
tp479
F0.0
s(I2
I2
I2
tp480
F0.0
s(I1
I2
I2
tp481
F0.0
s(I2
I0
I2
tp482
F0.0
s(I0
I0
I1
tp483
F0.0
s(I0
I0
I0
tp484
F0.01
s(I2
I1
I2
tp485
F0.0
s(I1
I1
I1
tp486
F0.0
s(I0
I1
I0
tp487
F0.01
s(I1
I1
I0
tp488
F0.0
s(I2
I1
I0
tp489
F0.0
s(I2
I2
I1
tp490
F0.0
s(I2
I1
I1
tp491
F0.0
s(I1
I1
I2
tp492
F0.0
s(I1
I0
I2
tp493
F0.0
ss(I0
I0
I0
tp494
(dp495
(I0
I1
I1
tp496
F0.0
s(I0
I1
I2
tp497
F0.0
s(I1
I0
I1
tp498
F0.0
s(I0
I2
I1
tp499
F0.0
s(I2
I2
I0
tp500
F0.0
s(I0
I2
I0
tp501
F0.0
s(I0
I2
I2
tp502
F0.0
s(I1
I0
I0
tp503
F0.01
s(I2
I0
I1
tp504
F0.0
s(I1
I2
I0
tp505
F0.0
s(I2
I0
I0
tp506
F0.0
s(I1
I2
I1
tp507
F0.0
s(I0
I0
I2
tp508
F0.0
s(I2
I2
I2
tp509
F0.0
s(I1
I2
I2
tp510
F0.0
s(I2
I0
I2
tp511
F0.0
s(I0
I0
I1
tp512
F0.0
s(I0
I0
I0
tp513
F0.0
s(I2
I1
I2
tp514
F0.0
s(I1
I1
I1
tp515
F0.01
s(I0
I1
I0
tp516
F0.0
s(I1
I1
I0
tp517
F0.0
s(I2
I1
I0
tp518
F0.0
s(I2
I2
I1
tp519
F0.0
s(I2
I1
I1
tp520
F0.0
s(I1
I1
I2
tp521
F0.0
s(I1
I0
I2
tp522
F0.01
ss(I2
I1
I2
tp523
(dp524
(I0
I1
I1
tp525
F0.0
s(I0
I1
I2
tp526
F0.0
s(I1
I0
I1
tp527
F0.0
s(I0
I2
I1
tp528
F0.0
s(I2
I2
I0
tp529
F0.0
s(I0
I2
I0
tp530
F0.0
s(I0
I2
I2
tp531
F0.0
s(I1
I0
I0
tp532
F0.0
s(I2
I0
I1
tp533
F0.0
s(I1
I2
I0
tp534
F0.0
s(I2
I0
I0
tp535
F0.0
s(I1
I2
I1
tp536
F0.0
s(I0
I0
I2
tp537
F0.0
s(I2
I2
I2
tp538
F0.0
s(I1
I2
I2
tp539
F0.0
s(I2
I0
I2
tp540
F0.0
s(I0
I0
I1
tp541
F0.0
s(I0
I0
I0
tp542
F0.0
s(I2
I1
I2
tp543
F0.0
s(I1
I1
I1
tp544
F0.0
s(I0
I1
I0
tp545
F0.0
s(I1
I1
I0
tp546
F0.0
s(I2
I1
I0
tp547
F0.0
s(I2
I2
I1
tp548
F0.0
s(I2
I1
I1
tp549
F0.0
s(I1
I1
I2
tp550
F0.02
s(I1
I0
I2
tp551
F0.0
ss(I1
I1
I1
tp552
(dp553
(I0
I1
I1
tp554
F0.0
s(I0
I1
I2
tp555
F0.0
s(I1
I0
I1
tp556
F0.0
s(I0
I2
I1
tp557
F0.0
s(I2
I2
I0
tp558
F0.01
s(I0
I2
I0
tp559
F0.0
s(I0
I2
I2
tp560
F0.0
s(I1
I0
I0
tp561
F0.0
s(I2
I0
I1
tp562
F0.0
s(I1
I2
I0
tp563
F0.0
s(I2
I0
I0
tp564
F0.01
s(I1
I2
I1
tp565
F0.0
s(I0
I0
I2
tp566
F0.0
s(I2
I2
I2
tp567
F0.0
s(I1
I2
I2
tp568
F0.0
s(I2
I0
I2
tp569
F0.0
s(I0
I0
I1
tp570
F0.0
s(I0
I0
I0
tp571
F0.0
s(I2
I1
I2
tp572
F0.0
s(I1
I1
I1
tp573
F0.0
s(I0
I1
I0
tp574
F0.0
s(I1
I1
I0
tp575
F0.0
s(I2
I1
I0
tp576
F0.040000000000000001
s(I2
I2
I1
tp577
F0.0
s(I2
I1
I1
tp578
F0.0
s(I1
I1
I2
tp579
F0.0
s(I1
I0
I2
tp580
F0.0
ss(I0
I1
I0
tp581
(dp582
(I0
I1
I1
tp583
F0.01
s(I0
I1
I2
tp584
F0.0
s(I1
I0
I1
tp585
F0.0
s(I0
I2
I1
tp586
F0.0
s(I2
I2
I0
tp587
F0.0
s(I0
I2
I0
tp588
F0.0
s(I0
I2
I2
tp589
F0.0
s(I1
I0
I0
tp590
F0.0
s(I2
I0
I1
tp591
F0.0
s(I1
I2
I0
tp592
F0.0
s(I2
I0
I0
tp593
F0.0
s(I1
I2
I1
tp594
F0.0
s(I0
I0
I2
tp595
F0.0
s(I2
I2
I2
tp596
F0.0
s(I1
I2
I2
tp597
F0.0
s(I2
I0
I2
tp598
F0.0
s(I0
I0
I1
tp599
F0.0
s(I0
I0
I0
tp600
F0.0
s(I2
I1
I2
tp601
F0.0
s(I1
I1
I1
tp602
F0.01
s(I0
I1
I0
tp603
F0.0
s(I1
I1
I0
tp604
F0.070000000000000007
s(I2
I1
I0
tp605
F0.0
s(I2
I2
I1
tp606
F0.0
s(I2
I1
I1
tp607
F0.0
s(I1
I1
I2
tp608
F0.0
s(I1
I0
I2
tp609
F0.0
ss(I1
I1
I0
tp610
(dp611
(I0
I1
I1
tp612
F0.0
s(I0
I1
I2
tp613
F0.0
s(I1
I0
I1
tp614
F0.0
s(I0
I2
I1
tp615
F0.0
s(I2
I2
I0
tp616
F0.02
s(I0
I2
I0
tp617
F0.0
s(I0
I2
I2
tp618
F0.0
s(I1
I0
I0
tp619
F0.0
s(I2
I0
I1
tp620
F0.0
s(I1
I2
I0
tp621
F0.0
s(I2
I0
I0
tp622
F0.0
s(I1
I2
I1
tp623
F0.02
s(I0
I0
I2
tp624
F0.0
s(I2
I2
I2
tp625
F0.0
s(I1
I2
I2
tp626
F0.0
s(I2
I0
I2
tp627
F0.0
s(I0
I0
I1
tp628
F0.0
s(I0
I0
I0
tp629
F0.0
s(I2
I1
I2
tp630
F0.0
s(I1
I1
I1
tp631
F0.02
s(I0
I1
I0
tp632
F0.0
s(I1
I1
I0
tp633
F0.0
s(I2
I1
I0
tp634
F0.02
s(I2
I2
I1
tp635
F0.0
s(I2
I1
I1
tp636
F0.0
s(I1
I1
I2
tp637
F0.0
s(I1
I0
I2
tp638
F0.0
ss(I2
I1
I0
tp639
(dp640
(I0
I1
I1
tp641
F0.0
s(I0
I1
I2
tp642
F0.0
s(I1
I0
I1
tp643
F0.0
s(I0
I2
I1
tp644
F0.0
s(I2
I2
I0
tp645
F0.0
s(I0
I2
I0
tp646
F0.0
s(I0
I2
I2
tp647
F0.0
s(I1
I0
I0
tp648
F0.0
s(I2
I0
I1
tp649
F0.0
s(I1
I2
I0
tp650
F0.0
s(I2
I0
I0
tp651
F0.0
s(I1
I2
I1
tp652
F0.0
s(I0
I0
I2
tp653
F0.0
s(I2
I2
I2
tp654
F0.01
s(I1
I2
I2
tp655
F0.0
s(I2
I0
I2
tp656
F0.0
s(I0
I0
I1
tp657
F0.0
s(I0
I0
I0
tp658
F0.0
s(I2
I1
I2
tp659
F0.0
s(I1
I1
I1
tp660
F0.0
s(I0
I1
I0
tp661
F0.0
s(I1
I1
I0
tp662
F0.0
s(I2
I1
I0
tp663
F0.0
s(I2
I2
I1
tp664
F0.02
s(I2
I1
I1
tp665
F0.040000000000000001
s(I1
I1
I2
tp666
F0.0
s(I1
I0
I2
tp667
F0.0
ss(I2
I2
I1
tp668
(dp669
(I0
I1
I1
tp670
F0.0
s(I0
I1
I2
tp671
F0.0
s(I1
I0
I1
tp672
F0.0
s(I0
I2
I1
tp673
F0.0
s(I2
I2
I0
tp674
F0.0
s(I0
I2
I0
tp675
F0.0
s(I0
I2
I2
tp676
F0.0
s(I1
I0
I0
tp677
F0.0
s(I2
I0
I1
tp678
F0.0
s(I1
I2
I0
tp679
F0.0
s(I2
I0
I0
tp680
F0.0
s(I1
I2
I1
tp681
F0.0
s(I0
I0
I2
tp682
F0.0
s(I2
I2
I2
tp683
F0.02
s(I1
I2
I2
tp684
F0.029999999999999999
s(I2
I0
I2
tp685
F0.0
s(I0
I0
I1
tp686
F0.0
s(I0
I0
I0
tp687
F0.0
s(I2
I1
I2
tp688
F0.0
s(I1
I1
I1
tp689
F0.0
s(I0
I1
I0
tp690
F0.0
s(I1
I1
I0
tp691
F0.0
s(I2
I1
I0
tp692
F0.0
s(I2
I2
I1
tp693
F0.0
s(I2
I1
I1
tp694
F0.0
s(I1
I1
I2
tp695
F0.0
s(I1
I0
I2
tp696
F0.0
ss(I2
I1
I1
tp697
(dp698
(I0
I1
I1
tp699
F0.0
s(I0
I1
I2
tp700
F0.0
s(I1
I0
I1
tp701
F0.0
s(I0
I2
I1
tp702
F0.0
s(I2
I2
I0
tp703
F0.0
s(I0
I2
I0
tp704
F0.0
s(I0
I2
I2
tp705
F0.0
s(I1
I0
I0
tp706
F0.0
s(I2
I0
I1
tp707
F0.0
s(I1
I2
I0
tp708
F0.0
s(I2
I0
I0
tp709
F0.0
s(I1
I2
I1
tp710
F0.0
s(I0
I0
I2
tp711
F0.0
s(I2
I2
I2
tp712
F0.01
s(I1
I2
I2
tp713
F0.01
s(I2
I0
I2
tp714
F0.0
s(I0
I0
I1
tp715
F0.0
s(I0
I0
I0
tp716
F0.0
s(I2
I1
I2
tp717
F0.02
s(I1
I1
I1
tp718
F0.0
s(I0
I1
I0
tp719
F0.0
s(I1
I1
I0
tp720
F0.0
s(I2
I1
I0
tp721
F0.0
s(I2
I2
I1
tp722
F0.0
s(I2
I1
I1
tp723
F0.0
s(I1
I1
I2
tp724
F0.01
s(I1
I0
I2
tp725
F0.0
ss(I1
I1
I2
tp726
(dp727
(I0
I1
I1
tp728
F0.01
s(I0
I1
I2
tp729
F0.070000000000000007
s(I1
I0
I1
tp730
F0.0
s(I0
I2
I1
tp731
F0.0
s(I2
I2
I0
tp732
F0.0
s(I0
I2
I0
tp733
F0.0
s(I0
I2
I2
tp734
F0.0
s(I1
I0
I0
tp735
F0.0
s(I2
I0
I1
tp736
F0.0
s(I1
I2
I0
tp737
F0.0
s(I2
I0
I0
tp738
F0.0
s(I1
I2
I1
tp739
F0.0
s(I0
I0
I2
tp740
F0.0
s(I2
I2
I2
tp741
F0.0
s(I1
I2
I2
tp742
F0.0
s(I2
I0
I2
tp743
F0.0
s(I0
I0
I1
tp744
F0.0
s(I0
I0
I0
tp745
F0.0
s(I2
I1
I2
tp746
F0.0
s(I1
I1
I1
tp747
F0.0
s(I0
I1
I0
tp748
F0.0
s(I1
I1
I0
tp749
F0.0
s(I2
I1
I0
tp750
F0.0
s(I2
I2
I1
tp751
F0.0
s(I2
I1
I1
tp752
F0.0
s(I1
I1
I2
tp753
F0.0
s(I1
I0
I2
tp754
F0.01
ss(I1
I0
I2
tp755
(dp756
(I0
I1
I1
tp757
F0.0
s(I0
I1
I2
tp758
F0.0
s(I1
I0
I1
tp759
F0.0
s(I0
I2
I1
tp760
F0.0
s(I2
I2
I0
tp761
F0.0
s(I0
I2
I0
tp762
F0.0
s(I0
I2
I2
tp763
F0.0
s(I1
I0
I0
tp764
F0.0
s(I2
I0
I1
tp765
F0.0
s(I1
I2
I0
tp766
F0.0
s(I2
I0
I0
tp767
F0.0
s(I1
I2
I1
tp768
F0.0
s(I0
I0
I2
tp769
F0.0
s(I2
I2
I2
tp770
F0.0
s(I1
I2
I2
tp771
F0.0
s(I2
I0
I2
tp772
F0.01
s(I0
I0
I1
tp773
F0.0
s(I0
I0
I0
tp774
F0.0
s(I2
I1
I2
tp775
F0.0
s(I1
I1
I1
tp776
F0.0
s(I0
I1
I0
tp777
F0.0
s(I1
I1
I0
tp778
F0.0
s(I2
I1
I0
tp779
F0.0
s(I2
I2
I1
tp780
F0.0
s(I2
I1
I1
tp781
F0.0
s(I1
I1
I2
tp782
F0.01
s(I1
I0
I2
tp783
F0.0
ss.